target datalayout = "e-m:e-p270:32:32-p271:32:32-p272:64:64-i64:64-i128:128-f80:128-n8:16:32:64-S128"
target triple = "x86_64-pc-linux-gnu"

@.str.2 = private unnamed_addr constant [1 x i8] zeroinitializer, align 1
@.str.23 = private unnamed_addr constant [8 x i8] c"%s (%s)\00", align 1

; Function Attrs: nounwind uwtable
define internal i32 @asn1_print_oid(ptr noundef %0, ptr noundef %1) #0 {
  %3 = alloca i32, align 4
  %4 = alloca ptr, align 8
  %5 = alloca ptr, align 8
  %6 = alloca [80 x i8], align 16
  %7 = alloca ptr, align 8
  %8 = alloca i32, align 4
  store ptr %0, ptr %4, align 8, !tbaa !16
  store ptr %1, ptr %5, align 8, !tbaa !77
  call void @llvm.lifetime.start.p0(i64 80, ptr %6) #4
  call void @llvm.lifetime.start.p0(i64 8, ptr %7) #4
  %9 = load ptr, ptr %5, align 8, !tbaa !77
  %10 = call i32 @OBJ_obj2nid(ptr noundef %9)
  %11 = call ptr @OBJ_nid2ln(i32 noundef %10)
  store ptr %11, ptr %7, align 8, !tbaa !24
  %12 = load ptr, ptr %7, align 8, !tbaa !24
  %13 = icmp ne ptr %12, null
  br i1 %13, label %15, label %14

14:                                               ; preds = %2
  store ptr @.str.2, ptr %7, align 8, !tbaa !24
  br label %15

15:                                               ; preds = %14, %2
  %16 = getelementptr inbounds [80 x i8], ptr %6, i64 0, i64 0
  %17 = load ptr, ptr %5, align 8, !tbaa !77
  %18 = call i32 @OBJ_obj2txt(ptr noundef %16, i32 noundef 80, ptr noundef %17, i32 noundef 1)
  %19 = load ptr, ptr %4, align 8, !tbaa !16
  %20 = load ptr, ptr %7, align 8, !tbaa !24
  %21 = getelementptr inbounds [80 x i8], ptr %6, i64 0, i64 0
  %22 = call i32 (ptr, ptr, ...) @BIO_printf(ptr noundef %19, ptr noundef @.str.23, ptr noundef %20, ptr noundef %21)
  %23 = icmp sle i32 %22, 0
  br i1 %23, label %24, label %25

24:                                               ; preds = %15
  store i32 0, ptr %3, align 4
  store i32 1, ptr %8, align 4
  br label %26

25:                                               ; preds = %15
  store i32 1, ptr %3, align 4
  store i32 1, ptr %8, align 4
  br label %26

26:                                               ; preds = %25, %24
  call void @llvm.lifetime.end.p0(i64 8, ptr %7) #4
  call void @llvm.lifetime.end.p0(i64 80, ptr %6) #4
  %27 = load i32, ptr %3, align 4
  ret i32 %27
}