; Function Attrs: nounwind uwtable
define internal fastcc range(i32 0, 2) i32 @asn1_print_oid(ptr noundef %0, ptr noundef %1) unnamed_addr #0 {
  %3 = alloca [80 x i8], align 16
  call void @llvm.lifetime.start.p0(i64 80, ptr nonnull %3) #5
  %4 = tail call i32 @OBJ_obj2nid(ptr noundef %1) #5
  %5 = tail call ptr @OBJ_nid2ln(i32 noundef %4) #5
  %.not = icmp eq ptr %5, null
  %spec.store.select = select i1 %.not, ptr @.str.2, ptr %5
  %6 = call i32 @OBJ_obj2txt(ptr noundef nonnull %3, i32 noundef 80, ptr noundef %1, i32 noundef 1) #5
  %7 = call i32 (ptr, ptr, ...) @BIO_printf(ptr noundef %0, ptr noundef nonnull @.str.23, ptr noundef nonnull %spec.store.select, ptr noundef nonnull %3) #5
  %8 = icmp sgt i32 %7, 0
  %. = zext i1 %8 to i32
  call void @llvm.lifetime.end.p0(i64 80, ptr nonnull %3) #5
  ret i32 %.
}